target datalayout = "e-m:e-p270:32:32-p271:32:32-p272:64:64-i64:64-i128:128-f80:128-n8:16:32:64-S128"
target triple = "x86_64-pc-linux-gnu"

%"struct.vcpkg::msg::MessageT.44" = type { i64 }
%"struct.vcpkg::msg::url_t" = type { i8 }
%"struct.vcpkg::StringView" = type { ptr, i64 }
%"struct.vcpkg::ParsedArguments" = type { %"class.std::set", %"class.std::map", %"class.std::map.6", %"class.std::vector" }
%"class.std::set" = type { %"class.std::_Rb_tree" }
%"class.std::_Rb_tree" = type { %"struct.std::_Rb_tree<vcpkg::StringLiteral, vcpkg::StringLiteral, std::_Identity<vcpkg::StringLiteral>, std::less<void>>::_Rb_tree_impl" }
%"struct.std::_Rb_tree<vcpkg::StringLiteral, vcpkg::StringLiteral, std::_Identity<vcpkg::StringLiteral>, std::less<void>>::_Rb_tree_impl" = type { [8 x i8], %"struct.std::_Rb_tree_header" }
%"struct.std::_Rb_tree_header" = type { %"struct.std::_Rb_tree_node_base", i64 }
%"struct.std::_Rb_tree_node_base" = type { i32, ptr, ptr, ptr }
%"class.std::map" = type { %"class.std::_Rb_tree.2" }
%"class.std::_Rb_tree.2" = type { %"struct.std::_Rb_tree<vcpkg::StringLiteral, std::pair<const vcpkg::StringLiteral, std::__cxx11::basic_string<char>>, std::_Select1st<std::pair<const vcpkg::StringLiteral, std::__cxx11::basic_string<char>>>, std::less<void>>::_Rb_tree_impl" }
%"struct.std::_Rb_tree<vcpkg::StringLiteral, std::pair<const vcpkg::StringLiteral, std::__cxx11::basic_string<char>>, std::_Select1st<std::pair<const vcpkg::StringLiteral, std::__cxx11::basic_string<char>>>, std::less<void>>::_Rb_tree_impl" = type { [8 x i8], %"struct.std::_Rb_tree_header" }
%"class.std::map.6" = type { %"class.std::_Rb_tree.7" }
%"class.std::_Rb_tree.7" = type { %"struct.std::_Rb_tree<vcpkg::StringLiteral, std::pair<const vcpkg::StringLiteral, std::vector<std::__cxx11::basic_string<char>>>, std::_Select1st<std::pair<const vcpkg::StringLiteral, std::vector<std::__cxx11::basic_string<char>>>>, std::less<void>>::_Rb_tree_impl" }
%"struct.std::_Rb_tree<vcpkg::StringLiteral, std::pair<const vcpkg::StringLiteral, std::vector<std::__cxx11::basic_string<char>>>, std::_Select1st<std::pair<const vcpkg::StringLiteral, std::vector<std::__cxx11::basic_string<char>>>>, std::less<void>>::_Rb_tree_impl" = type { [8 x i8], %"struct.std::_Rb_tree_header" }
%"class.std::vector" = type { %"struct.std::_Vector_base" }
%"struct.std::_Vector_base" = type { %"struct.std::_Vector_base<std::__cxx11::basic_string<char>, std::allocator<std::__cxx11::basic_string<char>>>::_Vector_impl" }
%"struct.std::_Vector_base<std::__cxx11::basic_string<char>, std::allocator<std::__cxx11::basic_string<char>>>::_Vector_impl" = type { %"struct.std::_Vector_base<std::__cxx11::basic_string<char>, std::allocator<std::__cxx11::basic_string<char>>>::_Vector_impl_data" }
%"struct.std::_Vector_base<std::__cxx11::basic_string<char>, std::allocator<std::__cxx11::basic_string<char>>>::_Vector_impl_data" = type { ptr, ptr, ptr }
%"struct.vcpkg::msg::TagArg" = type { %"struct.vcpkg::StringView" }
%"struct.vcpkg::LineInfo" = type { i32, ptr }

@_ZN5vcpkg17msgEmailVcpkgTeamE = external global %"struct.vcpkg::msg::MessageT.44", align 8
@.str.2 = private unnamed_addr constant [20 x i8] c"vcpkg@microsoft.com\00", align 1
@_ZN5vcpkg3msgL3urlE = internal constant %"struct.vcpkg::msg::url_t" undef, align 1
@.str.3 = private unnamed_addr constant [125 x i8] c"generated/home/dtcxzyw/WorkSpace/Projects/compilers/llvm-opt-benchmark/bench/vcpkg/vcpkg-tool/src/vcpkg/commands.contact.cpp\00", align 1

; Function Attrs: mustprogress uwtable
define dso_local void @_ZN5vcpkg24command_contact_and_exitERKNS_17VcpkgCmdArgumentsERKNS_10FilesystemE(ptr noundef nonnull align 8 dereferenceable(1840) %0, ptr noundef nonnull align 1 %1) #0 {
  %3 = alloca ptr, align 8
  %4 = alloca ptr, align 8
  %5 = alloca %"struct.vcpkg::ParsedArguments", align 8
  %6 = alloca %"struct.vcpkg::msg::MessageT.44", align 8
  %7 = alloca %"struct.vcpkg::msg::TagArg", align 8
  %8 = alloca %"struct.vcpkg::LineInfo", align 8
  store ptr %0, ptr %3, align 8, !tbaa !4
  store ptr %1, ptr %4, align 8, !tbaa !9
  %9 = load ptr, ptr %3, align 8, !tbaa !4
  call void @_ZNK5vcpkg17VcpkgCmdArguments15parse_argumentsERKNS_15CommandMetadataE(ptr dead_on_unwind writable sret(%"struct.vcpkg::ParsedArguments") align 8 %5, ptr noundef nonnull align 8 dereferenceable(1840) %9, ptr noundef nonnull align 8 dereferenceable(184) @_ZN5vcpkg22CommandContactMetadataE)
  call void @_ZN5vcpkg15ParsedArgumentsD2Ev(ptr noundef nonnull align 8 dereferenceable(168) %5) #16
  call void @llvm.memcpy.p0.p0.i64(ptr align 8 %6, ptr align 8 @_ZN5vcpkg17msgEmailVcpkgTeamE, i64 8, i1 false), !tbaa.struct !11
  %10 = call { ptr, i64 } @_ZNK5vcpkg3msg5url_taSIA20_cEENS0_6TagArgIS1_NSt11conditionalIXsr3std16is_constructibleINS_10StringViewET_EE5valueES6_S7_E4typeEEERKS7_(ptr noundef nonnull align 1 dereferenceable(1) @_ZN5vcpkg3msgL3urlE, ptr noundef nonnull align 1 dereferenceable(20) @.str.2) #16
  %11 = getelementptr inbounds nuw %"struct.vcpkg::msg::TagArg", ptr %7, i32 0, i32 0
  %12 = getelementptr inbounds nuw { ptr, i64 }, ptr %11, i32 0, i32 0
  %13 = extractvalue { ptr, i64 } %10, 0
  store ptr %13, ptr %12, align 8
  %14 = getelementptr inbounds nuw { ptr, i64 }, ptr %11, i32 0, i32 1
  %15 = extractvalue { ptr, i64 } %10, 1
  store i64 %15, ptr %14, align 8
  %16 = getelementptr inbounds nuw %"struct.vcpkg::msg::MessageT.44", ptr %6, i32 0, i32 0
  %17 = load i64, ptr %16, align 8
  %18 = getelementptr inbounds nuw { ptr, i64 }, ptr %7, i32 0, i32 0
  %19 = load ptr, ptr %18, align 8
  %20 = getelementptr inbounds nuw { ptr, i64 }, ptr %7, i32 0, i32 1
  %21 = load i64, ptr %20, align 8
  call void @_ZN5vcpkg3msg7printlnIJNS0_5url_tEEJNS_10StringViewEEEEvNS0_8MessageTIJDpT_EEEDpNS0_6TagArgINS_8identityIS5_E4typeET0_EE(i64 %17, ptr %19, i64 %21)
  call void @llvm.lifetime.start.p0(i64 16, ptr %8) #16
  %22 = getelementptr inbounds nuw %"struct.vcpkg::LineInfo", ptr %8, i32 0, i32 0
  store i32 24, ptr %22, align 8, !tbaa !14
  %23 = getelementptr inbounds nuw %"struct.vcpkg::LineInfo", ptr %8, i32 0, i32 1
  store ptr @.str.3, ptr %23, align 8, !tbaa !18
  call void @_ZN5vcpkg6Checks12exit_successERKNS_8LineInfoE(ptr noundef nonnull align 8 dereferenceable(16) %8) #17
  unreachable
}