; Function Attrs: mustprogress noreturn uwtable
define dso_local void @_ZN5vcpkg24command_contact_and_exitERKNS_17VcpkgCmdArgumentsERKNS_10FilesystemE(ptr noundef nonnull align 8 dereferenceable(1840) %0, ptr noundef nonnull readnone align 1 captures(none) %1) local_unnamed_addr #0 {
  %3 = alloca %"struct.vcpkg::ParsedArguments", align 8
  %4 = alloca %"struct.vcpkg::LineInfo", align 8
  call void @_ZNK5vcpkg17VcpkgCmdArguments15parse_argumentsERKNS_15CommandMetadataE(ptr dead_on_unwind nonnull writable sret(%"struct.vcpkg::ParsedArguments") align 8 %3, ptr noundef nonnull align 8 dereferenceable(1840) %0, ptr noundef nonnull align 8 dereferenceable(184) @_ZN5vcpkg22CommandContactMetadataE)
  call void @_ZN5vcpkg15ParsedArgumentsD2Ev(ptr noundef nonnull align 8 dereferenceable(168) %3) #20
  %.sroa.01.0.copyload = load i64, ptr @_ZN5vcpkg17msgEmailVcpkgTeamE, align 8, !tbaa !4
  %5 = call { ptr, i64 } @_ZNK5vcpkg3msg5url_taSIA20_cEENS0_6TagArgIS1_NSt11conditionalIXsr3std16is_constructibleINS_10StringViewET_EE5valueES6_S7_E4typeEEERKS7_(ptr noundef nonnull align 1 dereferenceable(1) @_ZN5vcpkg3msgL3urlE, ptr noundef nonnull align 1 dereferenceable(20) @.str.2) #20
  %6 = extractvalue { ptr, i64 } %5, 0
  %7 = extractvalue { ptr, i64 } %5, 1
  call void @_ZN5vcpkg3msg7printlnIJNS0_5url_tEEJNS_10StringViewEEEEvNS0_8MessageTIJDpT_EEEDpNS0_6TagArgINS_8identityIS5_E4typeET0_EE(i64 %.sroa.01.0.copyload, ptr %6, i64 %7)
  call void @llvm.lifetime.start.p0(i64 16, ptr nonnull %4) #20
  store i32 24, ptr %4, align 8, !tbaa !8
  %8 = getelementptr inbounds nuw i8, ptr %4, i64 8
  store ptr @.str.3, ptr %8, align 8, !tbaa !13
  call void @_ZN5vcpkg6Checks12exit_successERKNS_8LineInfoE(ptr noundef nonnull align 8 dereferenceable(16) %4) #21
  unreachable
}